target datalayout = "e-m:e-p270:32:32-p271:32:32-p272:64:64-i64:64-i128:128-f80:128-n8:16:32:64-S128"
target triple = "x86_64-pc-linux-gnu"

%struct.VMAFMotionData = type { [5 x i16], i32, i32, i64, [2 x ptr], ptr, double, i64, %struct.VMAFMotionDSPContext }
%struct.VMAFMotionDSPContext = type { ptr, ptr, ptr }
%struct.AVFilterContext = type { ptr, ptr, ptr, ptr, ptr, i32, ptr, ptr, i32, ptr, ptr, i32, i32, ptr, ptr, ptr, ptr, i32, ptr, i32, i32 }
%struct.VMAFMotionContext = type { ptr, %struct.VMAFMotionData, ptr, ptr }

@stdout = external global ptr, align 8
@.str.13 = private unnamed_addr constant [23 x i8] c"VMAF Motion avg: %.3f\0A\00", align 1

; Function Attrs: cold nounwind optsize uwtable
define internal void @uninit(ptr noundef %0) #4 {
  %2 = alloca ptr, align 8
  %3 = alloca ptr, align 8
  %4 = alloca double, align 8
  store ptr %0, ptr %2, align 8, !tbaa !47
  call void @llvm.lifetime.start.p0(i64 8, ptr %3) #10
  %5 = load ptr, ptr %2, align 8, !tbaa !47
  %6 = getelementptr inbounds nuw %struct.AVFilterContext, ptr %5, i32 0, i32 9
  %7 = load ptr, ptr %6, align 8, !tbaa !49
  store ptr %7, ptr %3, align 8, !tbaa !60
  call void @llvm.lifetime.start.p0(i64 8, ptr %4) #10
  %8 = load ptr, ptr %3, align 8, !tbaa !60
  %9 = getelementptr inbounds nuw %struct.VMAFMotionContext, ptr %8, i32 0, i32 1
  %10 = call nsz double @ff_vmafmotion_uninit(ptr noundef %9)
  store double %10, ptr %4, align 8, !tbaa !28
  %11 = load ptr, ptr %3, align 8, !tbaa !60
  %12 = getelementptr inbounds nuw %struct.VMAFMotionContext, ptr %11, i32 0, i32 1
  %13 = getelementptr inbounds nuw %struct.VMAFMotionData, ptr %12, i32 0, i32 7
  %14 = load i64, ptr %13, align 8, !tbaa !67
  %15 = icmp ugt i64 %14, 0
  br i1 %15, label %16, label %19

16:                                               ; preds = %1
  %17 = load ptr, ptr %2, align 8, !tbaa !47
  %18 = load double, ptr %4, align 8, !tbaa !28
  call void (ptr, i32, ptr, ...) @av_log(ptr noundef %17, i32 noundef 32, ptr noundef @.str.13, double noundef %18)
  br label %19

19:                                               ; preds = %16, %1
  %20 = load ptr, ptr %3, align 8, !tbaa !60
  %21 = getelementptr inbounds nuw %struct.VMAFMotionContext, ptr %20, i32 0, i32 2
  %22 = load ptr, ptr %21, align 8, !tbaa !66
  %23 = icmp ne ptr %22, null
  br i1 %23, label %24, label %35

24:                                               ; preds = %19
  %25 = load ptr, ptr %3, align 8, !tbaa !60
  %26 = getelementptr inbounds nuw %struct.VMAFMotionContext, ptr %25, i32 0, i32 2
  %27 = load ptr, ptr %26, align 8, !tbaa !66
  %28 = load ptr, ptr @stdout, align 8, !tbaa !65
  %29 = icmp ne ptr %27, %28
  br i1 %29, label %30, label %35

30:                                               ; preds = %24
  %31 = load ptr, ptr %3, align 8, !tbaa !60
  %32 = getelementptr inbounds nuw %struct.VMAFMotionContext, ptr %31, i32 0, i32 2
  %33 = load ptr, ptr %32, align 8, !tbaa !66
  %34 = call i32 @fclose(ptr noundef %33)
  br label %35

35:                                               ; preds = %30, %24, %19
  call void @llvm.lifetime.end.p0(i64 8, ptr %4) #10
  call void @llvm.lifetime.end.p0(i64 8, ptr %3) #10
  ret void
}