; Function Attrs: cold nounwind optsize uwtable
define internal void @uninit(ptr noundef %0) #4 {
  %2 = getelementptr inbounds nuw i8, ptr %0, i64 72
  %3 = load ptr, ptr %2, align 8, !tbaa !37
  %4 = getelementptr inbounds nuw i8, ptr %3, i64 8
  %5 = tail call nsz double @ff_vmafmotion_uninit(ptr noundef nonnull %4)
  %6 = getelementptr inbounds nuw i8, ptr %3, i64 72
  %7 = load i64, ptr %6, align 8, !tbaa !53
  %.not = icmp eq i64 %7, 0
  br i1 %.not, label %9, label %8

8:                                                ; preds = %1
  tail call void (ptr, i32, ptr, ...) @av_log(ptr noundef nonnull %0, i32 noundef 32, ptr noundef nonnull @.str.13, double noundef %5) #10
  br label %9

9:                                                ; preds = %8, %1
  %10 = getelementptr inbounds nuw i8, ptr %3, i64 104
  %11 = load ptr, ptr %10, align 8, !tbaa !52
  %.not8 = icmp eq ptr %11, null
  %12 = load ptr, ptr @stdout, align 8
  %.not9 = icmp eq ptr %11, %12
  %or.cond = select i1 %.not8, i1 true, i1 %.not9
  br i1 %or.cond, label %15, label %13

13:                                               ; preds = %9
  %14 = tail call i32 @fclose(ptr noundef nonnull %11)
  br label %15

15:                                               ; preds = %13, %9
  ret void
}